; ModuleID = '13/401.c'
source_filename = "13/401.c"
target datalayout = "e-m:e-p270:32:32-p271:32:32-p272:64:64-i64:64-f80:128-n8:16:32:64-S128"
target triple = "x86_64-pc-linux-gnu"

@.str = private unnamed_addr constant [3 x i8] c"%d\00", align 1
@.str.1 = private unnamed_addr constant [4 x i8] c"%d \00", align 1

; Function Attrs: noinline nounwind uwtable
define dso_local void @main() #0 {
  %1 = alloca i32, align 4
  %2 = alloca i32, align 4
  %3 = alloca i32, align 4
  %4 = alloca i32, align 4
  %5 = alloca i32, align 4
  %6 = alloca [20000 x i32], align 16
  %7 = call i32 (i8*, ...) @__isoc99_scanf(i8* getelementptr inbounds ([3 x i8], [3 x i8]* @.str, i64 0, i64 0), i32* %1)
  store i32 0, i32* %2, align 4
  store i32 0, i32* %3, align 4
  br label %8

8:                                                ; preds = %17, %0
  %9 = load i32, i32* %3, align 4
  %10 = load i32, i32* %1, align 4
  %11 = icmp slt i32 %9, %10
  br i1 %11, label %12, label %20

12:                                               ; preds = %8
  %13 = load i32, i32* %3, align 4
  %14 = sext i32 %13 to i64
  %15 = getelementptr inbounds [20000 x i32], [20000 x i32]* %6, i64 0, i64 %14
  %16 = call i32 (i8*, ...) @__isoc99_scanf(i8* getelementptr inbounds ([3 x i8], [3 x i8]* @.str, i64 0, i64 0), i32* %15)
  br label %17

17:                                               ; preds = %12
  %18 = load i32, i32* %3, align 4
  %19 = add nsw i32 %18, 1
  store i32 %19, i32* %3, align 4
  br label %8

20:                                               ; preds = %8
  store i32 0, i32* %4, align 4
  br label %21

21:                                               ; preds = %51, %20
  %22 = load i32, i32* %4, align 4
  %23 = load i32, i32* %1, align 4
  %24 = icmp slt i32 %22, %23
  br i1 %24, label %25, label %54

25:                                               ; preds = %21
  %26 = load i32, i32* %4, align 4
  %27 = add nsw i32 %26, 1
  store i32 %27, i32* %3, align 4
  br label %28

28:                                               ; preds = %47, %25
  %29 = load i32, i32* %3, align 4
  %30 = load i32, i32* %1, align 4
  %31 = icmp slt i32 %29, %30
  br i1 %31, label %32, label %50

32:                                               ; preds = %28
  %33 = load i32, i32* %4, align 4
  %34 = sext i32 %33 to i64
  %35 = getelementptr inbounds [20000 x i32], [20000 x i32]* %6, i64 0, i64 %34
  %36 = load i32, i32* %35, align 4
  %37 = load i32, i32* %3, align 4
  %38 = sext i32 %37 to i64
  %39 = getelementptr inbounds [20000 x i32], [20000 x i32]* %6, i64 0, i64 %38
  %40 = load i32, i32* %39, align 4
  %41 = icmp eq i32 %36, %40
  br i1 %41, label %42, label %46

42:                                               ; preds = %32
  %43 = load i32, i32* %3, align 4
  %44 = sext i32 %43 to i64
  %45 = getelementptr inbounds [20000 x i32], [20000 x i32]* %6, i64 0, i64 %44
  store i32 42, i32* %45, align 4
  br label %46

46:                                               ; preds = %42, %32
  br label %47

47:                                               ; preds = %46
  %48 = load i32, i32* %3, align 4
  %49 = add nsw i32 %48, 1
  store i32 %49, i32* %3, align 4
  br label %28

50:                                               ; preds = %28
  br label %51

51:                                               ; preds = %50
  %52 = load i32, i32* %4, align 4
  %53 = add nsw i32 %52, 1
  store i32 %53, i32* %4, align 4
  br label %21

54:                                               ; preds = %21
  %55 = load i32, i32* %1, align 4
  %56 = sub nsw i32 %55, 1
  %57 = sext i32 %56 to i64
  %58 = getelementptr inbounds [20000 x i32], [20000 x i32]* %6, i64 0, i64 %57
  %59 = load i32, i32* %58, align 4
  %60 = icmp ne i32 %59, 42
  br i1 %60, label %61, label %90

61:                                               ; preds = %54
  store i32 0, i32* %3, align 4
  br label %62

62:                                               ; preds = %80, %61
  %63 = load i32, i32* %3, align 4
  %64 = load i32, i32* %1, align 4
  %65 = sub nsw i32 %64, 1
  %66 = icmp slt i32 %63, %65
  br i1 %66, label %67, label %83

67:                                               ; preds = %62
  %68 = load i32, i32* %3, align 4
  %69 = sext i32 %68 to i64
  %70 = getelementptr inbounds [20000 x i32], [20000 x i32]* %6, i64 0, i64 %69
  %71 = load i32, i32* %70, align 4
  %72 = icmp ne i32 %71, 42
  br i1 %72, label %73, label %79

73:                                               ; preds = %67
  %74 = load i32, i32* %3, align 4
  %75 = sext i32 %74 to i64
  %76 = getelementptr inbounds [20000 x i32], [20000 x i32]* %6, i64 0, i64 %75
  %77 = load i32, i32* %76, align 4
  %78 = call i32 (i8*, ...) @printf(i8* getelementptr inbounds ([4 x i8], [4 x i8]* @.str.1, i64 0, i64 0), i32 %77)
  br label %79

79:                                               ; preds = %73, %67
  br label %80

80:                                               ; preds = %79
  %81 = load i32, i32* %3, align 4
  %82 = add nsw i32 %81, 1
  store i32 %82, i32* %3, align 4
  br label %62

83:                                               ; preds = %62
  %84 = load i32, i32* %1, align 4
  %85 = sub nsw i32 %84, 1
  %86 = sext i32 %85 to i64
  %87 = getelementptr inbounds [20000 x i32], [20000 x i32]* %6, i64 0, i64 %86
  %88 = load i32, i32* %87, align 4
  %89 = call i32 (i8*, ...) @printf(i8* getelementptr inbounds ([3 x i8], [3 x i8]* @.str, i64 0, i64 0), i32 %88)
  br label %143

90:                                               ; preds = %54
  %91 = load i32, i32* %1, align 4
  %92 = sub nsw i32 %91, 1
  store i32 %92, i32* %3, align 4
  br label %93

93:                                               ; preds = %107, %90
  %94 = load i32, i32* %3, align 4
  %95 = icmp sgt i32 %94, 0
  br i1 %95, label %96, label %110

96:                                               ; preds = %93
  %97 = load i32, i32* %3, align 4
  %98 = sext i32 %97 to i64
  %99 = getelementptr inbounds [20000 x i32], [20000 x i32]* %6, i64 0, i64 %98
  %100 = load i32, i32* %99, align 4
  %101 = icmp eq i32 %100, 42
  br i1 %101, label %102, label %105

102:                                              ; preds = %96
  %103 = load i32, i32* %2, align 4
  %104 = add nsw i32 %103, 1
  store i32 %104, i32* %2, align 4
  br label %106

105:                                              ; preds = %96
  br label %110

106:                                              ; preds = %102
  br label %107

107:                                              ; preds = %106
  %108 = load i32, i32* %3, align 4
  %109 = add nsw i32 %108, -1
  store i32 %109, i32* %3, align 4
  br label %93

110:                                              ; preds = %105, %93
  store i32 0, i32* %4, align 4
  br label %111

111:                                              ; preds = %131, %110
  %112 = load i32, i32* %4, align 4
  %113 = load i32, i32* %1, align 4
  %114 = load i32, i32* %2, align 4
  %115 = sub nsw i32 %113, %114
  %116 = sub nsw i32 %115, 1
  %117 = icmp slt i32 %112, %116
  br i1 %117, label %118, label %134

118:                                              ; preds = %111
  %119 = load i32, i32* %4, align 4
  %120 = sext i32 %119 to i64
  %121 = getelementptr inbounds [20000 x i32], [20000 x i32]* %6, i64 0, i64 %120
  %122 = load i32, i32* %121, align 4
  %123 = icmp ne i32 %122, 42
  br i1 %123, label %124, label %130

124:                                              ; preds = %118
  %125 = load i32, i32* %4, align 4
  %126 = sext i32 %125 to i64
  %127 = getelementptr inbounds [20000 x i32], [20000 x i32]* %6, i64 0, i64 %126
  %128 = load i32, i32* %127, align 4
  %129 = call i32 (i8*, ...) @printf(i8* getelementptr inbounds ([4 x i8], [4 x i8]* @.str.1, i64 0, i64 0), i32 %128)
  br label %130

130:                                              ; preds = %124, %118
  br label %131

131:                                              ; preds = %130
  %132 = load i32, i32* %4, align 4
  %133 = add nsw i32 %132, 1
  store i32 %133, i32* %4, align 4
  br label %111

134:                                              ; preds = %111
  %135 = load i32, i32* %1, align 4
  %136 = load i32, i32* %2, align 4
  %137 = sub nsw i32 %135, %136
  %138 = sub nsw i32 %137, 1
  %139 = sext i32 %138 to i64
  %140 = getelementptr inbounds [20000 x i32], [20000 x i32]* %6, i64 0, i64 %139
  %141 = load i32, i32* %140, align 4
  %142 = call i32 (i8*, ...) @printf(i8* getelementptr inbounds ([3 x i8], [3 x i8]* @.str, i64 0, i64 0), i32 %141)
  br label %143

143:                                              ; preds = %134, %83
  ret void
}

declare dso_local i32 @__isoc99_scanf(i8*, ...) #1

declare dso_local i32 @printf(i8*, ...) #1


!llvm.module.flags = !{!0}
!llvm.ident = !{!1}

!0 = !{i32 1, !"wchar_size", i32 4}
!1 = !{!"clang version 10.0.0-4ubuntu1 "}
